; Function Attrs: mustprogress nofree norecurse nosync nounwind willreturn memory(read, inaccessiblemem: none) uwtable
define { ptr, i32 } @_ZN10OpenSubdiv6v3_6_03Far10PatchTable28getPatchArrayVaryingVerticesEi(ptr nocapture noundef nonnull readonly align 8 dereferenceable(273) %0, i32 noundef %1) local_unnamed_addr #6 align 2 {
  %3 = getelementptr inbounds nuw i8, ptr %0, i64 8
  %4 = load ptr, ptr %3, align 8
  %5 = getelementptr inbounds nuw i8, ptr %0, i64 144
  %6 = load i32, ptr %5, align 8
  %switch.tableidx = add i32 %6, -1
  %7 = icmp ult i32 %switch.tableidx, 10
  br i1 %7, label %switch.lookup, label %_ZNK10OpenSubdiv6v3_6_03Far15PatchDescriptor21GetNumControlVerticesEv.exit

switch.lookup:                                    ; preds = %2
  %8 = zext nneg i32 %switch.tableidx to i64
  %switch.gep = getelementptr inbounds [10 x i32], ptr @switch.table._ZNK10OpenSubdiv6v3_6_03Far10PatchTable18GetPatchFVarValuesEiii.5, i64 0, i64 %8
  %switch.load = load i32, ptr %switch.gep, align 4
  br label %_ZNK10OpenSubdiv6v3_6_03Far15PatchDescriptor21GetNumControlVerticesEv.exit

_ZNK10OpenSubdiv6v3_6_03Far15PatchDescriptor21GetNumControlVerticesEv.exit: ; preds = %2, %switch.lookup
  %.0.i.i = phi i32 [ %switch.load, %switch.lookup ], [ -1, %2 ]
  %9 = sext i32 %1 to i64
  %10 = getelementptr inbounds %"struct.OpenSubdiv::v3_6_0::Far::PatchTable::PatchArray", ptr %4, i64 %9
  %11 = getelementptr inbounds nuw i8, ptr %10, i64 12
  %12 = load i32, ptr %11, align 4
  %13 = mul nsw i32 %12, %.0.i.i
  %14 = getelementptr inbounds nuw i8, ptr %0, i64 152
  %15 = sext i32 %13 to i64
  %16 = load ptr, ptr %14, align 8
  %17 = getelementptr inbounds i32, ptr %16, i64 %15
  %18 = getelementptr inbounds nuw i8, ptr %10, i64 4
  %19 = load i32, ptr %18, align 4
  %20 = mul nsw i32 %19, %.0.i.i
  %.fca.0.insert = insertvalue { ptr, i32 } poison, ptr %17, 0
  %.fca.1.insert = insertvalue { ptr, i32 } %.fca.0.insert, i32 %20, 1
  ret { ptr, i32 } %.fca.1.insert
}